target datalayout = "e-m:e-p270:32:32-p271:32:32-p272:64:64-i64:64-i128:128-f80:128-n8:16:32:64-S128"
target triple = "x86_64-unknown-linux-gnu"

%struct.NBDTLSHandshakeData = type { ptr, i8, ptr }

; Function Attrs: nounwind sspstrong uwtable
define dso_local void @nbd_tls_handshake(ptr noundef %task, ptr noundef %opaque) #0 {
entry:
  %task.addr = alloca ptr, align 8
  %opaque.addr = alloca ptr, align 8
  %data = alloca ptr, align 8
  store ptr %task, ptr %task.addr, align 8
  store ptr %opaque, ptr %opaque.addr, align 8
  %0 = load ptr, ptr %opaque.addr, align 8
  store ptr %0, ptr %data, align 8
  %1 = load ptr, ptr %task.addr, align 8
  %2 = load ptr, ptr %data, align 8
  %error = getelementptr inbounds %struct.NBDTLSHandshakeData, ptr %2, i32 0, i32 2
  %call = call zeroext i1 @qio_task_propagate_error(ptr noundef %1, ptr noundef %error)
  %3 = load ptr, ptr %data, align 8
  %complete = getelementptr inbounds %struct.NBDTLSHandshakeData, ptr %3, i32 0, i32 1
  store i8 1, ptr %complete, align 8
  %4 = load ptr, ptr %data, align 8
  %loop = getelementptr inbounds %struct.NBDTLSHandshakeData, ptr %4, i32 0, i32 0
  %5 = load ptr, ptr %loop, align 8
  call void @g_main_loop_quit(ptr noundef %5)
  ret void
}