; Function Attrs: nounwind sspstrong uwtable
define dso_local void @nbd_tls_handshake(ptr noundef %task, ptr noundef %opaque) local_unnamed_addr #0 {
entry:
  %error = getelementptr inbounds nuw i8, ptr %opaque, i64 16
  %call = tail call zeroext i1 @qio_task_propagate_error(ptr noundef %task, ptr noundef nonnull %error) #8
  %complete = getelementptr inbounds nuw i8, ptr %opaque, i64 8
  store i8 1, ptr %complete, align 8
  %0 = load ptr, ptr %opaque, align 8
  tail call void @g_main_loop_quit(ptr noundef %0) #8
  ret void
}